target datalayout = "e-m:e-p270:32:32-p271:32:32-p272:64:64-i64:64-i128:128-f80:128-n8:16:32:64-S128"
target triple = "x86_64-pc-linux-gnu"

%struct.anon = type { i64, i64, i64, i64, i64, double, double, ptr, [2 x double], [2 x double], [2 x double], [20 x [20 x ptr]], [20 x [20 x ptr]], ptr, ptr, ptr }
%struct._generic_N_Vector = type { ptr, ptr, ptr }
%struct._N_VectorContent_Serial = type { i64, i32, ptr }

; Function Attrs: nounwind uwtable
define internal i32 @PSolve(double noundef %0, ptr noundef %1, ptr noundef %2, ptr noundef %3, ptr noundef %4, ptr noundef %5, double noundef %6, double noundef %7, ptr noundef %8) #0 {
  %10 = alloca double, align 8
  %11 = alloca ptr, align 8
  %12 = alloca ptr, align 8
  %13 = alloca ptr, align 8
  %14 = alloca ptr, align 8
  %15 = alloca ptr, align 8
  %16 = alloca double, align 8
  %17 = alloca double, align 8
  %18 = alloca ptr, align 8
  %19 = alloca ptr, align 8
  %20 = alloca ptr, align 8
  %21 = alloca ptr, align 8
  %22 = alloca i32, align 4
  %23 = alloca i32, align 4
  %24 = alloca ptr, align 8
  store double %0, ptr %10, align 8, !tbaa !26
  store ptr %1, ptr %11, align 8, !tbaa !8
  store ptr %2, ptr %12, align 8, !tbaa !8
  store ptr %3, ptr %13, align 8, !tbaa !8
  store ptr %4, ptr %14, align 8, !tbaa !8
  store ptr %5, ptr %15, align 8, !tbaa !8
  store double %6, ptr %16, align 8, !tbaa !26
  store double %7, ptr %17, align 8, !tbaa !26
  store ptr %8, ptr %18, align 8, !tbaa !4
  call void @llvm.lifetime.start.p0(i64 8, ptr %19) #6
  call void @llvm.lifetime.start.p0(i64 8, ptr %20) #6
  call void @llvm.lifetime.start.p0(i64 8, ptr %21) #6
  call void @llvm.lifetime.start.p0(i64 4, ptr %22) #6
  call void @llvm.lifetime.start.p0(i64 4, ptr %23) #6
  call void @llvm.lifetime.start.p0(i64 8, ptr %24) #6
  %25 = load ptr, ptr %18, align 8, !tbaa !4
  store ptr %25, ptr %24, align 8, !tbaa !4
  %26 = load ptr, ptr %14, align 8, !tbaa !8
  %27 = load ptr, ptr %15, align 8, !tbaa !8
  call void @N_VScale(double noundef 1.000000e+00, ptr noundef %26, ptr noundef %27)
  store i32 0, ptr %22, align 4, !tbaa !12
  br label %28

28:                                               ; preds = %74, %9
  %29 = load i32, ptr %22, align 4, !tbaa !12
  %30 = icmp slt i32 %29, 20
  br i1 %30, label %31, label %77

31:                                               ; preds = %28
  store i32 0, ptr %23, align 4, !tbaa !12
  br label %32

32:                                               ; preds = %70, %31
  %33 = load i32, ptr %23, align 4, !tbaa !12
  %34 = icmp slt i32 %33, 20
  br i1 %34, label %35, label %73

35:                                               ; preds = %32
  %36 = load ptr, ptr %15, align 8, !tbaa !8
  %37 = getelementptr inbounds nuw %struct._generic_N_Vector, ptr %36, i32 0, i32 0
  %38 = load ptr, ptr %37, align 8, !tbaa !44
  %39 = getelementptr inbounds nuw %struct._N_VectorContent_Serial, ptr %38, i32 0, i32 2
  %40 = load ptr, ptr %39, align 8, !tbaa !47
  %41 = load i32, ptr %22, align 4, !tbaa !12
  %42 = mul nsw i32 %41, 2
  %43 = mul nsw i32 %42, 1
  %44 = load i32, ptr %23, align 4, !tbaa !12
  %45 = mul nsw i32 %44, 40
  %46 = add nsw i32 %43, %45
  %47 = sext i32 %46 to i64
  %48 = getelementptr inbounds double, ptr %40, i64 %47
  store ptr %48, ptr %20, align 8, !tbaa !42
  %49 = load ptr, ptr %24, align 8, !tbaa !4
  %50 = getelementptr inbounds nuw %struct.anon, ptr %49, i32 0, i32 11
  %51 = load i32, ptr %22, align 4, !tbaa !12
  %52 = sext i32 %51 to i64
  %53 = getelementptr inbounds [20 x [20 x ptr]], ptr %50, i64 0, i64 %52
  %54 = load i32, ptr %23, align 4, !tbaa !12
  %55 = sext i32 %54 to i64
  %56 = getelementptr inbounds [20 x ptr], ptr %53, i64 0, i64 %55
  %57 = load ptr, ptr %56, align 8, !tbaa !25
  store ptr %57, ptr %19, align 8, !tbaa !25
  %58 = load ptr, ptr %24, align 8, !tbaa !4
  %59 = getelementptr inbounds nuw %struct.anon, ptr %58, i32 0, i32 12
  %60 = load i32, ptr %22, align 4, !tbaa !12
  %61 = sext i32 %60 to i64
  %62 = getelementptr inbounds [20 x [20 x ptr]], ptr %59, i64 0, i64 %61
  %63 = load i32, ptr %23, align 4, !tbaa !12
  %64 = sext i32 %63 to i64
  %65 = getelementptr inbounds [20 x ptr], ptr %62, i64 0, i64 %64
  %66 = load ptr, ptr %65, align 8, !tbaa !23
  store ptr %66, ptr %21, align 8, !tbaa !23
  %67 = load ptr, ptr %19, align 8, !tbaa !25
  %68 = load ptr, ptr %21, align 8, !tbaa !23
  %69 = load ptr, ptr %20, align 8, !tbaa !42
  call void @SUNDlsMat_denseGETRS(ptr noundef %67, i64 noundef 2, ptr noundef %68, ptr noundef %69)
  br label %70

70:                                               ; preds = %35
  %71 = load i32, ptr %23, align 4, !tbaa !12
  %72 = add nsw i32 %71, 1
  store i32 %72, ptr %23, align 4, !tbaa !12
  br label %32

73:                                               ; preds = %32
  br label %74

74:                                               ; preds = %73
  %75 = load i32, ptr %22, align 4, !tbaa !12
  %76 = add nsw i32 %75, 1
  store i32 %76, ptr %22, align 4, !tbaa !12
  br label %28

77:                                               ; preds = %28
  call void @llvm.lifetime.end.p0(i64 8, ptr %24) #6
  call void @llvm.lifetime.end.p0(i64 4, ptr %23) #6
  call void @llvm.lifetime.end.p0(i64 4, ptr %22) #6
  call void @llvm.lifetime.end.p0(i64 8, ptr %21) #6
  call void @llvm.lifetime.end.p0(i64 8, ptr %20) #6
  call void @llvm.lifetime.end.p0(i64 8, ptr %19) #6
  ret i32 0
}