; Function Attrs: nounwind uwtable
define internal noundef i32 @PSolve(double %0, ptr readnone captures(none) %1, ptr readnone captures(none) %2, ptr readnone captures(none) %3, ptr noundef %4, ptr noundef %5, double %6, double %7, ptr noundef readonly captures(none) %8) #0 {
  tail call void @N_VScale(double noundef 1.000000e+00, ptr noundef %4, ptr noundef %5) #12
  %10 = getelementptr inbounds nuw i8, ptr %8, i64 112
  %11 = getelementptr inbounds nuw i8, ptr %8, i64 3312
  br label %.preheader

.preheader:                                       ; preds = %9, %22
  %indvars.iv22 = phi i64 [ 0, %9 ], [ %indvars.iv.next23, %22 ]
  %.idx26 = shl nsw i64 %indvars.iv22, 4
  br label %12

12:                                               ; preds = %.preheader, %12
  %indvars.iv = phi i64 [ 0, %.preheader ], [ %indvars.iv.next, %12 ]
  %13 = load ptr, ptr %5, align 8, !tbaa !34
  %14 = getelementptr inbounds nuw i8, ptr %13, i64 16
  %15 = load ptr, ptr %14, align 8, !tbaa !37
  %.idx = mul nuw nsw i64 %indvars.iv, 320
  %16 = getelementptr inbounds nuw i8, ptr %15, i64 %.idx
  %17 = getelementptr inbounds nuw i8, ptr %16, i64 %.idx26
  %18 = getelementptr inbounds nuw [20 x [20 x ptr]], ptr %10, i64 0, i64 %indvars.iv22, i64 %indvars.iv
  %19 = load ptr, ptr %18, align 8, !tbaa !21
  %20 = getelementptr inbounds nuw [20 x [20 x ptr]], ptr %11, i64 0, i64 %indvars.iv22, i64 %indvars.iv
  %21 = load ptr, ptr %20, align 8, !tbaa !19
  tail call void @SUNDlsMat_denseGETRS(ptr noundef %19, i64 noundef 2, ptr noundef %21, ptr noundef %17) #12
  %indvars.iv.next = add nuw nsw i64 %indvars.iv, 1
  %exitcond.not = icmp eq i64 %indvars.iv.next, 20
  br i1 %exitcond.not, label %22, label %12

22:                                               ; preds = %12
  %indvars.iv.next23 = add nuw nsw i64 %indvars.iv22, 1
  %exitcond25.not = icmp eq i64 %indvars.iv.next23, 20
  br i1 %exitcond25.not, label %23, label %.preheader

23:                                               ; preds = %22
  ret i32 0
}